; Function Attrs: mustprogress uwtable
define void @_ZN8QuantLib23LogNormalFwdRateBalland15setInitialStateERKNS_10CurveStateE(ptr noundef nonnull align 8 dereferenceable(632) %this, ptr noundef nonnull align 8 dereferenceable(64) %cs) unnamed_addr #4 align 2 {
entry:
  %vtable = load ptr, ptr %cs, align 8, !tbaa !3
  %vfn = getelementptr inbounds i8, ptr %vtable, i64 64
  %0 = load ptr, ptr %vfn, align 8
  %call = tail call noundef nonnull align 8 dereferenceable(24) ptr %0(ptr noundef nonnull align 8 dereferenceable(64) %cs)
  tail call void @_ZN8QuantLib23LogNormalFwdRateBalland11setForwardsERKSt6vectorIdSaIdEE(ptr noundef nonnull align 8 dereferenceable(632) %this, ptr noundef nonnull align 8 dereferenceable(24) %call)
  ret void
}